; Function Attrs: mustprogress uwtable
define hidden noundef ptr @pj_nzmg(ptr noundef writeonly %0) local_unnamed_addr #0 {
  %.not = icmp eq ptr %0, null
  br i1 %.not, label %11, label %2

2:                                                ; preds = %1
  %3 = getelementptr inbounds nuw i8, ptr %0, i64 168
  store double 0x415854E500000000, ptr %3, align 8, !tbaa !3
  %4 = getelementptr inbounds nuw i8, ptr %0, i64 184
  store double 0x3E850AE666EC0537, ptr %4, align 8, !tbaa !36
  %5 = getelementptr inbounds nuw i8, ptr %0, i64 440
  store double 0x400827C57763A87F, ptr %5, align 8, !tbaa !37
  %6 = getelementptr inbounds nuw i8, ptr %0, i64 448
  store double 0xBFE6E6127FF9D971, ptr %6, align 8, !tbaa !38
  %7 = getelementptr inbounds nuw i8, ptr %0, i64 456
  store double 2.510000e+06, ptr %7, align 8, !tbaa !39
  %8 = getelementptr inbounds nuw i8, ptr %0, i64 464
  store double 6.023150e+06, ptr %8, align 8, !tbaa !40
  %9 = getelementptr inbounds nuw i8, ptr %0, i64 112
  store ptr @_ZL14nzmg_e_inverse5PJ_XYP8PJconsts, ptr %9, align 8, !tbaa !41
  %10 = getelementptr inbounds nuw i8, ptr %0, i64 104
  store ptr @_ZL14nzmg_e_forward5PJ_LPP8PJconsts, ptr %10, align 8, !tbaa !42
  br label %20

11:                                               ; preds = %1
  %12 = tail call noundef ptr @_Z6pj_newv()
  %13 = icmp eq ptr %12, null
  br i1 %13, label %20, label %14

14:                                               ; preds = %11
  %15 = getelementptr inbounds nuw i8, ptr %12, i64 8
  store ptr @.str, ptr %15, align 8, !tbaa !43
  %16 = getelementptr inbounds nuw i8, ptr %12, i64 16
  store ptr @_ZL8des_nzmg, ptr %16, align 8, !tbaa !44
  %17 = getelementptr inbounds nuw i8, ptr %12, i64 360
  store i32 1, ptr %17, align 8, !tbaa !45
  %18 = getelementptr inbounds nuw i8, ptr %12, i64 380
  store i32 4, ptr %18, align 4, !tbaa !46
  %19 = getelementptr inbounds nuw i8, ptr %12, i64 384
  store i32 1, ptr %19, align 8, !tbaa !47
  br label %20

20:                                               ; preds = %11, %14, %2
  %.0 = phi ptr [ %0, %2 ], [ %12, %14 ], [ null, %11 ]
  ret ptr %.0
}